; Function Attrs: mustprogress nounwind uwtable
define void @_ZN3zmq12udp_engine_tD2Ev(ptr noundef nonnull align 8 dereferenceable(17880) %0) unnamed_addr #5 align 2 personality ptr @__gxx_personality_v0 {
  %2 = getelementptr inbounds nuw i8, ptr %0, i64 96
  %3 = load i8, ptr %2, align 8, !tbaa !18, !range !97, !noundef !98
  %4 = trunc nuw i8 %3 to i1
  br i1 %4, label %5, label %10, !prof !72

5:                                                ; preds = %1
  %6 = load ptr, ptr @stderr, align 8, !tbaa !105
  %7 = tail call i32 (ptr, ptr, ...) @fprintf(ptr noundef %6, ptr noundef nonnull @.str, ptr noundef nonnull @.str.1, ptr noundef nonnull @.str.2, i32 noundef 45) #27
  %8 = load ptr, ptr @stderr, align 8, !tbaa !105
  %9 = tail call i32 @fflush(ptr noundef %8)
  invoke void @_ZN3zmq9zmq_abortEPKc(ptr noundef nonnull @.str.1)
          to label %10 unwind label %41

10:                                               ; preds = %5, %1
  %11 = getelementptr inbounds nuw i8, ptr %0, i64 100
  %12 = load i32, ptr %11, align 4, !tbaa !64
  %.not = icmp eq i32 %12, -1
  br i1 %.not, label %25, label %13

13:                                               ; preds = %10
  %14 = invoke i32 @close(i32 noundef %12)
          to label %15 unwind label %41

15:                                               ; preds = %13
  %.not3 = icmp eq i32 %14, 0
  br i1 %.not3, label %24, label %16, !prof !107

16:                                               ; preds = %15
  %17 = tail call ptr @__errno_location() #28
  %18 = load i32, ptr %17, align 4, !tbaa !76
  %19 = tail call ptr @strerror(i32 noundef %18) #23
  %20 = load ptr, ptr @stderr, align 8, !tbaa !105
  %21 = tail call i32 (ptr, ptr, ...) @fprintf(ptr noundef %20, ptr noundef nonnull @.str.3, ptr noundef %19, ptr noundef nonnull @.str.2, i32 noundef 53) #27
  %22 = load ptr, ptr @stderr, align 8, !tbaa !105
  %23 = tail call i32 @fflush(ptr noundef %22)
  invoke void @_ZN3zmq9zmq_abortEPKc(ptr noundef %19)
          to label %24 unwind label %41

24:                                               ; preds = %16, %15
  store i32 -1, ptr %11, align 4, !tbaa !64
  br label %25

25:                                               ; preds = %24, %10
  %26 = getelementptr inbounds nuw i8, ptr %0, i64 128
  tail call void @_ZN3zmq9options_tD2Ev(ptr noundef nonnull align 8 dereferenceable(1336) %26) #23
  %27 = getelementptr inbounds nuw i8, ptr %0, i64 24
  %28 = getelementptr inbounds nuw i8, ptr %0, i64 56
  %29 = load ptr, ptr %28, align 8, !tbaa !68
  %30 = getelementptr inbounds nuw i8, ptr %0, i64 72
  %31 = icmp eq ptr %29, %30
  br i1 %31, label %_ZNKSt7__cxx1112basic_stringIcSt11char_traitsIcESaIcEE11_M_is_localEv.exit.thread.i.i.i, label %_ZNKSt7__cxx1112basic_stringIcSt11char_traitsIcESaIcEE11_M_is_localEv.exit.i.i.i

_ZNKSt7__cxx1112basic_stringIcSt11char_traitsIcESaIcEE11_M_is_localEv.exit.thread.i.i.i: ; preds = %25
  %32 = getelementptr inbounds nuw i8, ptr %0, i64 64
  %33 = load i64, ptr %32, align 8, !tbaa !11
  %34 = icmp ult i64 %33, 16
  tail call void @llvm.assume(i1 %34)
  br label %_ZNSt7__cxx1112basic_stringIcSt11char_traitsIcESaIcEED2Ev.exit.i

_ZNKSt7__cxx1112basic_stringIcSt11char_traitsIcESaIcEE11_M_is_localEv.exit.i.i.i: ; preds = %25
  tail call void @_ZdlPv(ptr noundef %29) #26
  br label %_ZNSt7__cxx1112basic_stringIcSt11char_traitsIcESaIcEED2Ev.exit.i

_ZNSt7__cxx1112basic_stringIcSt11char_traitsIcESaIcEED2Ev.exit.i: ; preds = %_ZNKSt7__cxx1112basic_stringIcSt11char_traitsIcESaIcEE11_M_is_localEv.exit.i.i.i, %_ZNKSt7__cxx1112basic_stringIcSt11char_traitsIcESaIcEE11_M_is_localEv.exit.thread.i.i.i
  %35 = load ptr, ptr %27, align 8, !tbaa !68
  %36 = getelementptr inbounds nuw i8, ptr %0, i64 40
  %37 = icmp eq ptr %35, %36
  br i1 %37, label %_ZNKSt7__cxx1112basic_stringIcSt11char_traitsIcESaIcEE11_M_is_localEv.exit.thread.i.i2.i, label %_ZNKSt7__cxx1112basic_stringIcSt11char_traitsIcESaIcEE11_M_is_localEv.exit.i.i1.i

_ZNKSt7__cxx1112basic_stringIcSt11char_traitsIcESaIcEE11_M_is_localEv.exit.thread.i.i2.i: ; preds = %_ZNSt7__cxx1112basic_stringIcSt11char_traitsIcESaIcEED2Ev.exit.i
  %38 = getelementptr inbounds nuw i8, ptr %0, i64 32
  %39 = load i64, ptr %38, align 8, !tbaa !11
  %40 = icmp ult i64 %39, 16
  tail call void @llvm.assume(i1 %40)
  br label %_ZN3zmq19endpoint_uri_pair_tD2Ev.exit

_ZNKSt7__cxx1112basic_stringIcSt11char_traitsIcESaIcEE11_M_is_localEv.exit.i.i1.i: ; preds = %_ZNSt7__cxx1112basic_stringIcSt11char_traitsIcESaIcEED2Ev.exit.i
  tail call void @_ZdlPv(ptr noundef %35) #26
  br label %_ZN3zmq19endpoint_uri_pair_tD2Ev.exit

_ZN3zmq19endpoint_uri_pair_tD2Ev.exit:            ; preds = %_ZNKSt7__cxx1112basic_stringIcSt11char_traitsIcESaIcEE11_M_is_localEv.exit.thread.i.i2.i, %_ZNKSt7__cxx1112basic_stringIcSt11char_traitsIcESaIcEE11_M_is_localEv.exit.i.i1.i
  tail call void @_ZN3zmq11io_object_tD2Ev(ptr noundef nonnull align 8 dereferenceable(16) %0) #23
  ret void

41:                                               ; preds = %16, %13, %5
  %42 = landingpad { ptr, i32 }
          catch ptr null
  %43 = extractvalue { ptr, i32 } %42, 0
  tail call void @__clang_call_terminate(ptr %43) #29
  unreachable
}